target datalayout = "e-m:e-p270:32:32-p271:32:32-p272:64:64-i64:64-i128:128-f80:128-n8:16:32:64-S128"
target triple = "x86_64-pc-linux-gnu"

%struct.hwloc_topology = type { i32, i32, i32, ptr, ptr, i64, [20 x i32], [20 x i32], i64, i64, i32, ptr, i64, ptr, i64, [6 x %struct.hwloc_special_level_s], ptr, ptr, %struct.hwloc_binding_hooks, %struct.hwloc_topology_support, %struct.hwloc_infos_s, ptr, ptr, i32, ptr, ptr, i32, i32, ptr, i32, i32, ptr, i32, i32, i32, [5 x float], i32, ptr, ptr, i32, i32, ptr, i32, %struct.hwloc_numanode_attr_s, i32, i32, ptr, i64, i32, ptr, ptr, ptr }
%struct.hwloc_special_level_s = type { i32, ptr, ptr, ptr }
%struct.hwloc_binding_hooks = type { ptr, ptr, ptr, ptr, ptr, ptr, ptr, ptr, ptr, ptr, ptr, ptr, ptr, ptr, ptr, ptr, ptr, ptr, ptr, ptr, ptr, ptr, ptr, ptr }
%struct.hwloc_topology_support = type { ptr, ptr, ptr, ptr }
%struct.hwloc_infos_s = type { ptr, i32, i32 }
%struct.hwloc_numanode_attr_s = type { i64, i32, ptr }
%struct.hwloc_pci_forced_locality_s = type { i32, i32, i32, ptr }
%struct.hwloc_pci_locality_s = type { i32, i32, i32, ptr, ptr, ptr, ptr }

; Function Attrs: nounwind uwtable
define hidden void @hwloc_pci_discovery_init(ptr noundef %0) #0 {
  %2 = alloca ptr, align 8
  store ptr %0, ptr %2, align 8, !tbaa !3
  %3 = load ptr, ptr %2, align 8, !tbaa !3
  %4 = getelementptr inbounds nuw %struct.hwloc_topology, ptr %3, i32 0, i32 44
  store i32 0, ptr %4, align 8, !tbaa !8
  %5 = load ptr, ptr %2, align 8, !tbaa !3
  %6 = getelementptr inbounds nuw %struct.hwloc_topology, ptr %5, i32 0, i32 45
  store i32 0, ptr %6, align 4, !tbaa !33
  %7 = load ptr, ptr %2, align 8, !tbaa !3
  %8 = getelementptr inbounds nuw %struct.hwloc_topology, ptr %7, i32 0, i32 46
  store ptr null, ptr %8, align 8, !tbaa !34
  %9 = load ptr, ptr %2, align 8, !tbaa !3
  %10 = getelementptr inbounds nuw %struct.hwloc_topology, ptr %9, i32 0, i32 51
  store ptr null, ptr %10, align 8, !tbaa !35
  %11 = load ptr, ptr %2, align 8, !tbaa !3
  %12 = getelementptr inbounds nuw %struct.hwloc_topology, ptr %11, i32 0, i32 50
  store ptr null, ptr %12, align 8, !tbaa !36
  %13 = load ptr, ptr %2, align 8, !tbaa !3
  %14 = getelementptr inbounds nuw %struct.hwloc_topology, ptr %13, i32 0, i32 47
  store i64 -1, ptr %14, align 8, !tbaa !37
  ret void
}

; Function Attrs: nounwind uwtable
define hidden void @hwloc_pci_discovery_exit(ptr noundef %0) #0 {
  %2 = alloca ptr, align 8
  %3 = alloca ptr, align 8
  %4 = alloca i32, align 4
  %5 = alloca ptr, align 8
  store ptr %0, ptr %2, align 8, !tbaa !3
  call void @llvm.lifetime.start.p0(i64 8, ptr %3) #12
  call void @llvm.lifetime.start.p0(i64 4, ptr %4) #12
  store i32 0, ptr %4, align 4, !tbaa !40
  br label %6

6:                                                ; preds = %21, %1
  %7 = load i32, ptr %4, align 4, !tbaa !40
  %8 = load ptr, ptr %2, align 8, !tbaa !3
  %9 = getelementptr inbounds nuw %struct.hwloc_topology, ptr %8, i32 0, i32 45
  %10 = load i32, ptr %9, align 4, !tbaa !33
  %11 = icmp ult i32 %7, %10
  br i1 %11, label %12, label %24

12:                                               ; preds = %6
  %13 = load ptr, ptr %2, align 8, !tbaa !3
  %14 = getelementptr inbounds nuw %struct.hwloc_topology, ptr %13, i32 0, i32 46
  %15 = load ptr, ptr %14, align 8, !tbaa !34
  %16 = load i32, ptr %4, align 4, !tbaa !40
  %17 = zext i32 %16 to i64
  %18 = getelementptr inbounds nuw %struct.hwloc_pci_forced_locality_s, ptr %15, i64 %17
  %19 = getelementptr inbounds nuw %struct.hwloc_pci_forced_locality_s, ptr %18, i32 0, i32 3
  %20 = load ptr, ptr %19, align 8, !tbaa !48
  call void @hwloc_bitmap_free(ptr noundef %20)
  br label %21

21:                                               ; preds = %12
  %22 = load i32, ptr %4, align 4, !tbaa !40
  %23 = add i32 %22, 1
  store i32 %23, ptr %4, align 4, !tbaa !40
  br label %6, !llvm.loop !50

24:                                               ; preds = %6
  %25 = load ptr, ptr %2, align 8, !tbaa !3
  %26 = getelementptr inbounds nuw %struct.hwloc_topology, ptr %25, i32 0, i32 46
  %27 = load ptr, ptr %26, align 8, !tbaa !34
  call void @free(ptr noundef %27) #12
  %28 = load ptr, ptr %2, align 8, !tbaa !3
  %29 = getelementptr inbounds nuw %struct.hwloc_topology, ptr %28, i32 0, i32 50
  %30 = load ptr, ptr %29, align 8, !tbaa !36
  store ptr %30, ptr %3, align 8, !tbaa !52
  br label %31

31:                                               ; preds = %34, %24
  %32 = load ptr, ptr %3, align 8, !tbaa !52
  %33 = icmp ne ptr %32, null
  br i1 %33, label %34, label %43

34:                                               ; preds = %31
  call void @llvm.lifetime.start.p0(i64 8, ptr %5) #12
  %35 = load ptr, ptr %3, align 8, !tbaa !52
  %36 = getelementptr inbounds nuw %struct.hwloc_pci_locality_s, ptr %35, i32 0, i32 6
  %37 = load ptr, ptr %36, align 8, !tbaa !53
  store ptr %37, ptr %5, align 8, !tbaa !52
  %38 = load ptr, ptr %3, align 8, !tbaa !52
  %39 = getelementptr inbounds nuw %struct.hwloc_pci_locality_s, ptr %38, i32 0, i32 3
  %40 = load ptr, ptr %39, align 8, !tbaa !56
  call void @hwloc_bitmap_free(ptr noundef %40)
  %41 = load ptr, ptr %3, align 8, !tbaa !52
  call void @free(ptr noundef %41) #12
  %42 = load ptr, ptr %5, align 8, !tbaa !52
  store ptr %42, ptr %3, align 8, !tbaa !52
  call void @llvm.lifetime.end.p0(i64 8, ptr %5) #12
  br label %31, !llvm.loop !57

43:                                               ; preds = %31
  %44 = load ptr, ptr %2, align 8, !tbaa !3
  call void @hwloc_pci_discovery_init(ptr noundef %44)
  call void @llvm.lifetime.end.p0(i64 4, ptr %4) #12
  call void @llvm.lifetime.end.p0(i64 8, ptr %3) #12
  ret void
}