; Function Attrs: nounwind uwtable
define hidden void @hwloc_pci_discovery_exit(ptr noundef captures(none) %0) local_unnamed_addr #1 {
  %2 = getelementptr inbounds nuw i8, ptr %0, i64 884
  %3 = load i32, ptr %2, align 4, !tbaa !38
  %.not19 = icmp eq i32 %3, 0
  br i1 %.not19, label %._crit_edge, label %.lr.ph

.lr.ph:                                           ; preds = %1
  %4 = getelementptr inbounds nuw i8, ptr %0, i64 888
  br label %5

5:                                                ; preds = %.lr.ph, %5
  %indvars.iv = phi i64 [ 0, %.lr.ph ], [ %indvars.iv.next, %5 ]
  %6 = load ptr, ptr %4, align 8, !tbaa !40
  %7 = getelementptr inbounds nuw %struct.hwloc_pci_forced_locality_s, ptr %6, i64 %indvars.iv, i32 3
  %8 = load ptr, ptr %7, align 8, !tbaa !45
  tail call void @hwloc_bitmap_free(ptr noundef %8) #22
  %indvars.iv.next = add nuw nsw i64 %indvars.iv, 1
  %9 = load i32, ptr %2, align 4, !tbaa !38
  %10 = zext i32 %9 to i64
  %11 = icmp samesign ult i64 %indvars.iv.next, %10
  br i1 %11, label %5, label %._crit_edge, !llvm.loop !46

._crit_edge:                                      ; preds = %5, %1
  %12 = getelementptr inbounds nuw i8, ptr %0, i64 888
  %13 = load ptr, ptr %12, align 8, !tbaa !40
  tail call void @free(ptr noundef %13) #22
  %14 = getelementptr inbounds nuw i8, ptr %0, i64 920
  %15 = load ptr, ptr %14, align 8, !tbaa !48
  %.not14 = icmp eq ptr %15, null
  br i1 %.not14, label %._crit_edge18, label %.lr.ph17

.lr.ph17:                                         ; preds = %._crit_edge, %.lr.ph17
  %.015 = phi ptr [ %17, %.lr.ph17 ], [ %15, %._crit_edge ]
  %16 = getelementptr inbounds nuw i8, ptr %.015, i64 40
  %17 = load ptr, ptr %16, align 8, !tbaa !49
  %18 = getelementptr inbounds nuw i8, ptr %.015, i64 16
  %19 = load ptr, ptr %18, align 8, !tbaa !52
  tail call void @hwloc_bitmap_free(ptr noundef %19) #22
  tail call void @free(ptr noundef nonnull %.015) #22
  %.not = icmp eq ptr %17, null
  br i1 %.not, label %._crit_edge18, label %.lr.ph17, !llvm.loop !53

._crit_edge18:                                    ; preds = %.lr.ph17, %._crit_edge
  %20 = getelementptr inbounds nuw i8, ptr %0, i64 880
  %21 = getelementptr inbounds nuw i8, ptr %0, i64 896
  tail call void @llvm.memset.p0.i64(ptr noundef nonnull align 8 dereferenceable(16) %20, i8 0, i64 16, i1 false)
  tail call void @llvm.memset.p0.i64(ptr noundef nonnull align 8 dereferenceable(16) %14, i8 0, i64 16, i1 false)
  store i64 -1, ptr %21, align 8, !tbaa !3
  ret void
}